; Function Attrs: nounwind uwtable
define dso_local i64 @pgstat_get_stat_snapshot_timestamp(ptr noundef writeonly captures(none) initializes((0, 1)) %0) local_unnamed_addr #0 {
  %.b2 = load i1, ptr @force_stats_snapshot_clear, align 1
  br i1 %.b2, label %2, label %5

2:                                                ; preds = %1
  tail call void @llvm.memset.p0.i64(ptr noundef nonnull align 8 dereferenceable(13) getelementptr inbounds nuw (i8, ptr @pgStatLocal, i64 40), i8 0, i64 13, i1 false)
  tail call void @llvm.memset.p0.i64(ptr noundef nonnull align 8 dereferenceable(129) getelementptr inbounds nuw (i8, ptr @pgStatLocal, i64 49864), i8 0, i64 129, i1 false)
  store ptr null, ptr getelementptr inbounds nuw (i8, ptr @pgStatLocal, i64 51040), align 8
  store i32 0, ptr getelementptr inbounds nuw (i8, ptr @pgStatLocal, i64 24), align 8
  %3 = load ptr, ptr getelementptr inbounds nuw (i8, ptr @pgStatLocal, i64 51032), align 8
  %.not.i = icmp eq ptr %3, null
  br i1 %.not.i, label %pgstat_clear_snapshot.exit, label %4

4:                                                ; preds = %2
  tail call void @MemoryContextDelete(ptr noundef nonnull %3) #17
  store ptr null, ptr getelementptr inbounds nuw (i8, ptr @pgStatLocal, i64 51032), align 8
  br label %pgstat_clear_snapshot.exit

pgstat_clear_snapshot.exit:                       ; preds = %2, %4
  tail call void @pgstat_clear_backend_activity_snapshot() #17
  store i1 false, ptr @force_stats_snapshot_clear, align 1
  br label %5

5:                                                ; preds = %pgstat_clear_snapshot.exit, %1
  %6 = load i32, ptr getelementptr inbounds nuw (i8, ptr @pgStatLocal, i64 24), align 8
  %7 = icmp eq i32 %6, 2
  br i1 %7, label %8, label %10

8:                                                ; preds = %5
  store i8 1, ptr %0, align 1
  %9 = load i64, ptr getelementptr inbounds nuw (i8, ptr @pgStatLocal, i64 32), align 8
  br label %11

10:                                               ; preds = %5
  store i8 0, ptr %0, align 1
  br label %11

11:                                               ; preds = %10, %8
  %.0 = phi i64 [ %9, %8 ], [ 0, %10 ]
  ret i64 %.0
}